target datalayout = "e-m:e-p270:32:32-p271:32:32-p272:64:64-i64:64-i128:128-f80:128-n8:16:32:64-S128"
target triple = "x86_64-pc-linux-gnu"

%struct.stmm_table = type { ptr, ptr, i32, i32, i32, i32, double, ptr, ptr }
%struct.stmm_table_entry = type { ptr, ptr, ptr }
%struct.stmm_generator = type { ptr, ptr, i32 }

; Function Attrs: nounwind uwtable
define i32 @stmm_gen_int(ptr noundef %0, ptr noundef %1, ptr noundef %2) #0 {
  %4 = alloca i32, align 4
  %5 = alloca ptr, align 8
  %6 = alloca ptr, align 8
  %7 = alloca ptr, align 8
  %8 = alloca i32, align 4
  store ptr %0, ptr %5, align 8
  store ptr %1, ptr %6, align 8
  store ptr %2, ptr %7, align 8
  %9 = load ptr, ptr %5, align 8
  %10 = getelementptr inbounds %struct.stmm_generator, ptr %9, i32 0, i32 1
  %11 = load ptr, ptr %10, align 8
  %12 = icmp eq ptr %11, null
  br i1 %12, label %13, label %63

13:                                               ; preds = %3
  %14 = load ptr, ptr %5, align 8
  %15 = getelementptr inbounds %struct.stmm_generator, ptr %14, i32 0, i32 2
  %16 = load i32, ptr %15, align 8
  store i32 %16, ptr %8, align 4
  br label %17

17:                                               ; preds = %53, %13
  %18 = load i32, ptr %8, align 4
  %19 = load ptr, ptr %5, align 8
  %20 = getelementptr inbounds %struct.stmm_generator, ptr %19, i32 0, i32 0
  %21 = load ptr, ptr %20, align 8
  %22 = getelementptr inbounds %struct.stmm_table, ptr %21, i32 0, i32 2
  %23 = load i32, ptr %22, align 8
  %24 = icmp slt i32 %18, %23
  br i1 %24, label %25, label %56

25:                                               ; preds = %17
  %26 = load ptr, ptr %5, align 8
  %27 = getelementptr inbounds %struct.stmm_generator, ptr %26, i32 0, i32 0
  %28 = load ptr, ptr %27, align 8
  %29 = getelementptr inbounds %struct.stmm_table, ptr %28, i32 0, i32 7
  %30 = load ptr, ptr %29, align 8
  %31 = load i32, ptr %8, align 4
  %32 = sext i32 %31 to i64
  %33 = getelementptr inbounds ptr, ptr %30, i64 %32
  %34 = load ptr, ptr %33, align 8
  %35 = icmp ne ptr %34, null
  br i1 %35, label %36, label %52

36:                                               ; preds = %25
  %37 = load i32, ptr %8, align 4
  %38 = add nsw i32 %37, 1
  %39 = load ptr, ptr %5, align 8
  %40 = getelementptr inbounds %struct.stmm_generator, ptr %39, i32 0, i32 2
  store i32 %38, ptr %40, align 8
  %41 = load ptr, ptr %5, align 8
  %42 = getelementptr inbounds %struct.stmm_generator, ptr %41, i32 0, i32 0
  %43 = load ptr, ptr %42, align 8
  %44 = getelementptr inbounds %struct.stmm_table, ptr %43, i32 0, i32 7
  %45 = load ptr, ptr %44, align 8
  %46 = load i32, ptr %8, align 4
  %47 = sext i32 %46 to i64
  %48 = getelementptr inbounds ptr, ptr %45, i64 %47
  %49 = load ptr, ptr %48, align 8
  %50 = load ptr, ptr %5, align 8
  %51 = getelementptr inbounds %struct.stmm_generator, ptr %50, i32 0, i32 1
  store ptr %49, ptr %51, align 8
  br label %56

52:                                               ; preds = %25
  br label %53

53:                                               ; preds = %52
  %54 = load i32, ptr %8, align 4
  %55 = add nsw i32 %54, 1
  store i32 %55, ptr %8, align 4
  br label %17, !llvm.loop !23

56:                                               ; preds = %36, %17
  %57 = load ptr, ptr %5, align 8
  %58 = getelementptr inbounds %struct.stmm_generator, ptr %57, i32 0, i32 1
  %59 = load ptr, ptr %58, align 8
  %60 = icmp eq ptr %59, null
  br i1 %60, label %61, label %62

61:                                               ; preds = %56
  store i32 0, ptr %4, align 4
  br label %88

62:                                               ; preds = %56
  br label %63

63:                                               ; preds = %62, %3
  %64 = load ptr, ptr %5, align 8
  %65 = getelementptr inbounds %struct.stmm_generator, ptr %64, i32 0, i32 1
  %66 = load ptr, ptr %65, align 8
  %67 = getelementptr inbounds %struct.stmm_table_entry, ptr %66, i32 0, i32 0
  %68 = load ptr, ptr %67, align 8
  %69 = load ptr, ptr %6, align 8
  store ptr %68, ptr %69, align 8
  %70 = load ptr, ptr %7, align 8
  %71 = icmp ne ptr %70, null
  br i1 %71, label %72, label %80

72:                                               ; preds = %63
  %73 = load ptr, ptr %5, align 8
  %74 = getelementptr inbounds %struct.stmm_generator, ptr %73, i32 0, i32 1
  %75 = load ptr, ptr %74, align 8
  %76 = getelementptr inbounds %struct.stmm_table_entry, ptr %75, i32 0, i32 1
  %77 = load ptr, ptr %76, align 8
  %78 = ptrtoint ptr %77 to i64
  %79 = load ptr, ptr %7, align 8
  store i64 %78, ptr %79, align 8
  br label %80

80:                                               ; preds = %72, %63
  %81 = load ptr, ptr %5, align 8
  %82 = getelementptr inbounds %struct.stmm_generator, ptr %81, i32 0, i32 1
  %83 = load ptr, ptr %82, align 8
  %84 = getelementptr inbounds %struct.stmm_table_entry, ptr %83, i32 0, i32 2
  %85 = load ptr, ptr %84, align 8
  %86 = load ptr, ptr %5, align 8
  %87 = getelementptr inbounds %struct.stmm_generator, ptr %86, i32 0, i32 1
  store ptr %85, ptr %87, align 8
  store i32 1, ptr %4, align 4
  br label %88

88:                                               ; preds = %80, %61
  %89 = load i32, ptr %4, align 4
  ret i32 %89
}