; Function Attrs: nofree norecurse nosync nounwind memory(read, argmem: readwrite, inaccessiblemem: none) uwtable
define range(i32 0, 2) i32 @stmm_gen_int(ptr noundef captures(none) %0, ptr noundef writeonly captures(none) %1, ptr noundef writeonly %2) local_unnamed_addr #8 {
  %4 = getelementptr inbounds nuw i8, ptr %0, i64 8
  %5 = load ptr, ptr %4, align 8
  %6 = icmp eq ptr %5, null
  br i1 %6, label %7, label %27

7:                                                ; preds = %3
  %8 = getelementptr inbounds nuw i8, ptr %0, i64 16
  %9 = load i32, ptr %8, align 8
  %10 = load ptr, ptr %0, align 8
  %11 = getelementptr inbounds nuw i8, ptr %10, i64 16
  %12 = load i32, ptr %11, align 8
  %13 = icmp slt i32 %9, %12
  br i1 %13, label %.lr.ph, label %thread-pre-split.thread

.lr.ph:                                           ; preds = %7
  %14 = getelementptr inbounds nuw i8, ptr %10, i64 40
  %15 = load ptr, ptr %14, align 8
  %16 = sext i32 %9 to i64
  %wide.trip.count = sext i32 %12 to i64
  br label %17

17:                                               ; preds = %.lr.ph, %20
  %indvars.iv = phi i64 [ %16, %.lr.ph ], [ %indvars.iv.next, %20 ]
  %18 = getelementptr inbounds ptr, ptr %15, i64 %indvars.iv
  %19 = load ptr, ptr %18, align 8
  %.not = icmp eq ptr %19, null
  br i1 %.not, label %20, label %thread-pre-split

20:                                               ; preds = %17
  %indvars.iv.next = add nsw i64 %indvars.iv, 1
  %exitcond.not = icmp eq i64 %indvars.iv.next, %wide.trip.count
  br i1 %exitcond.not, label %thread-pre-split.thread, label %17, !llvm.loop !22

thread-pre-split:                                 ; preds = %17
  %21 = trunc nsw i64 %indvars.iv to i32
  %22 = add nsw i32 %21, 1
  store i32 %22, ptr %8, align 8
  %23 = load ptr, ptr %14, align 8
  %24 = getelementptr inbounds ptr, ptr %23, i64 %indvars.iv
  %25 = load ptr, ptr %24, align 8
  store ptr %25, ptr %4, align 8
  %26 = icmp eq ptr %25, null
  br i1 %26, label %thread-pre-split.thread, label %27

27:                                               ; preds = %thread-pre-split, %3
  %28 = phi ptr [ %25, %thread-pre-split ], [ %5, %3 ]
  %29 = load ptr, ptr %28, align 8
  store ptr %29, ptr %1, align 8
  %.not22 = icmp eq ptr %2, null
  br i1 %.not22, label %35, label %30

30:                                               ; preds = %27
  %31 = load ptr, ptr %4, align 8
  %32 = getelementptr inbounds nuw i8, ptr %31, i64 8
  %33 = load ptr, ptr %32, align 8
  %34 = ptrtoint ptr %33 to i64
  store i64 %34, ptr %2, align 8
  br label %35

35:                                               ; preds = %30, %27
  %36 = load ptr, ptr %4, align 8
  %37 = getelementptr inbounds nuw i8, ptr %36, i64 16
  %38 = load ptr, ptr %37, align 8
  store ptr %38, ptr %4, align 8
  br label %thread-pre-split.thread

thread-pre-split.thread:                          ; preds = %20, %7, %thread-pre-split, %35
  %.020 = phi i32 [ 1, %35 ], [ 0, %thread-pre-split ], [ 0, %7 ], [ 0, %20 ]
  ret i32 %.020
}